; Function Attrs: mustprogress uwtable
define void @_ZN3zmq13socket_base_t13check_destroyEv(ptr noundef nonnull align 8 dereferenceable(1825) %0) local_unnamed_addr #0 align 2 {
  %2 = getelementptr inbounds nuw i8, ptr %0, i64 1629
  %3 = load i8, ptr %2, align 1, !tbaa !102, !range !97, !noundef !98
  %4 = trunc nuw i8 %3 to i1
  br i1 %4, label %5, label %10

5:                                                ; preds = %1
  %6 = getelementptr inbounds nuw i8, ptr %0, i64 1664
  %7 = load ptr, ptr %6, align 8, !tbaa !214
  %8 = getelementptr inbounds nuw i8, ptr %0, i64 1672
  %9 = load ptr, ptr %8, align 8, !tbaa !215
  tail call void @_ZN3zmq7epoll_t5rm_fdEPv(ptr noundef nonnull align 8 dereferenceable(224) %7, ptr noundef %9)
  tail call void @_ZN3zmq8object_t14destroy_socketEPNS_13socket_base_tE(ptr noundef nonnull align 8 dereferenceable(20) %0, ptr noundef nonnull %0)
  tail call void @_ZN3zmq8object_t11send_reapedEv(ptr noundef nonnull align 8 dereferenceable(20) %0)
  tail call void @_ZN3zmq5own_t15process_destroyEv(ptr noundef nonnull align 8 dereferenceable(1444) %0)
  br label %10

10:                                               ; preds = %5, %1
  ret void
}